target datalayout = "e-m:e-p270:32:32-p271:32:32-p272:64:64-i64:64-i128:128-f80:128-n8:16:32:64-S128"
target triple = "x86_64-pc-linux-gnu"

%struct.pcre2_serialized_data = type { i32, i32, i32, i32 }

; Function Attrs: nounwind uwtable
define dso_local i32 @php_pcre2_serialize_get_number_of_codes(ptr noundef %0) #0 {
  %2 = alloca i32, align 4
  %3 = alloca ptr, align 8
  %4 = alloca ptr, align 8
  %5 = alloca i32, align 4
  store ptr %0, ptr %3, align 8, !tbaa !21
  call void @llvm.lifetime.start.p0(i64 8, ptr %4) #5
  %6 = load ptr, ptr %3, align 8, !tbaa !21
  store ptr %6, ptr %4, align 8, !tbaa !33
  %7 = load ptr, ptr %4, align 8, !tbaa !33
  %8 = icmp eq ptr %7, null
  br i1 %8, label %9, label %10

9:                                                ; preds = %1
  store i32 -51, ptr %2, align 4
  store i32 1, ptr %5, align 4
  br label %33

10:                                               ; preds = %1
  %11 = load ptr, ptr %4, align 8, !tbaa !33
  %12 = getelementptr inbounds nuw %struct.pcre2_serialized_data, ptr %11, i32 0, i32 0
  %13 = load i32, ptr %12, align 4, !tbaa !35
  %14 = icmp ne i32 %13, 1347564115
  br i1 %14, label %15, label %16

15:                                               ; preds = %10
  store i32 -31, ptr %2, align 4
  store i32 1, ptr %5, align 4
  br label %33

16:                                               ; preds = %10
  %17 = load ptr, ptr %4, align 8, !tbaa !33
  %18 = getelementptr inbounds nuw %struct.pcre2_serialized_data, ptr %17, i32 0, i32 1
  %19 = load i32, ptr %18, align 4, !tbaa !37
  %20 = icmp ne i32 %19, 2949130
  br i1 %20, label %21, label %22

21:                                               ; preds = %16
  store i32 -32, ptr %2, align 4
  store i32 1, ptr %5, align 4
  br label %33

22:                                               ; preds = %16
  %23 = load ptr, ptr %4, align 8, !tbaa !33
  %24 = getelementptr inbounds nuw %struct.pcre2_serialized_data, ptr %23, i32 0, i32 2
  %25 = load i32, ptr %24, align 4, !tbaa !38
  %26 = zext i32 %25 to i64
  %27 = icmp ne i64 %26, 526337
  br i1 %27, label %28, label %29

28:                                               ; preds = %22
  store i32 -32, ptr %2, align 4
  store i32 1, ptr %5, align 4
  br label %33

29:                                               ; preds = %22
  %30 = load ptr, ptr %4, align 8, !tbaa !33
  %31 = getelementptr inbounds nuw %struct.pcre2_serialized_data, ptr %30, i32 0, i32 3
  %32 = load i32, ptr %31, align 4, !tbaa !39
  store i32 %32, ptr %2, align 4
  store i32 1, ptr %5, align 4
  br label %33

33:                                               ; preds = %29, %28, %21, %15, %9
  call void @llvm.lifetime.end.p0(i64 8, ptr %4) #5
  %34 = load i32, ptr %2, align 4
  ret i32 %34
}