; Function Attrs: mustprogress nofree norecurse nosync nounwind willreturn memory(argmem: read) uwtable
define dso_local i32 @php_pcre2_serialize_get_number_of_codes(ptr noundef readonly captures(address_is_null) %0) local_unnamed_addr #4 {
  %2 = icmp eq ptr %0, null
  br i1 %2, label %14, label %3

3:                                                ; preds = %1
  %4 = load i32, ptr %0, align 4, !tbaa !20
  %.not = icmp eq i32 %4, 1347564115
  br i1 %.not, label %5, label %14

5:                                                ; preds = %3
  %6 = getelementptr inbounds nuw i8, ptr %0, i64 4
  %7 = load i32, ptr %6, align 4, !tbaa !22
  %.not7 = icmp eq i32 %7, 2949130
  br i1 %.not7, label %8, label %14

8:                                                ; preds = %5
  %9 = getelementptr inbounds nuw i8, ptr %0, i64 8
  %10 = load i32, ptr %9, align 4, !tbaa !23
  %.not8 = icmp eq i32 %10, 526337
  br i1 %.not8, label %11, label %14

11:                                               ; preds = %8
  %12 = getelementptr inbounds nuw i8, ptr %0, i64 12
  %13 = load i32, ptr %12, align 4, !tbaa !24
  br label %14

14:                                               ; preds = %8, %5, %3, %1, %11
  %.0 = phi i32 [ %13, %11 ], [ -51, %1 ], [ -31, %3 ], [ -32, %5 ], [ -32, %8 ]
  ret i32 %.0
}